; Function Attrs: mustprogress uwtable
define noundef i32 @ureldatefmt_formatNumeric_77(ptr noundef %0, double noundef %1, i32 noundef %2, ptr noundef %3, i32 noundef %4, ptr noundef %5) local_unnamed_addr #1 personality ptr @__gxx_personality_v0 {
  %7 = alloca %"class.icu_77::UnicodeString", align 8
  %8 = alloca %"class.icu_77::Char16Ptr", align 8
  %9 = load i32, ptr %5, align 4, !tbaa !13
  %10 = icmp slt i32 %9, 1
  br i1 %10, label %11, label %36

11:                                               ; preds = %6
  %12 = icmp eq ptr %3, null
  br i1 %12, label %13, label %15

13:                                               ; preds = %11
  %.not21 = icmp eq i32 %4, 0
  br i1 %.not21, label %.thread, label %17

.thread:                                          ; preds = %13
  call void @llvm.lifetime.start.p0(i64 64, ptr nonnull %7) #20
  store ptr getelementptr inbounds nuw inrange(-16, 88) (i8, ptr @_ZTVN6icu_7713UnicodeStringE, i64 16), ptr %7, align 8, !tbaa !15
  %14 = getelementptr inbounds nuw i8, ptr %7, i64 8
  store i16 2, ptr %14, align 8, !tbaa !32
  br label %23

15:                                               ; preds = %11
  %16 = icmp slt i32 %4, 0
  br i1 %16, label %17, label %18

17:                                               ; preds = %15, %13
  store i32 1, ptr %5, align 4, !tbaa !13
  br label %36

18:                                               ; preds = %15
  call void @llvm.lifetime.start.p0(i64 64, ptr nonnull %7) #20
  store ptr getelementptr inbounds nuw inrange(-16, 88) (i8, ptr @_ZTVN6icu_7713UnicodeStringE, i64 16), ptr %7, align 8, !tbaa !15
  %19 = getelementptr inbounds nuw i8, ptr %7, i64 8
  store i16 2, ptr %19, align 8, !tbaa !32
  %20 = invoke noundef nonnull align 8 dereferenceable(64) ptr @_ZN6icu_7713UnicodeString5setToEPDsii(ptr noundef nonnull align 8 dereferenceable(64) %7, ptr noundef nonnull %3, i32 noundef 0, i32 noundef %4)
          to label %23 unwind label %21

21:                                               ; preds = %23, %18
  %22 = landingpad { ptr, i32 }
          cleanup
  br label %35

23:                                               ; preds = %.thread, %18
  %24 = invoke noundef nonnull align 8 dereferenceable(64) ptr @_ZNK6icu_7725RelativeDateTimeFormatter8doFormatIMS0_KFvd21URelativeDateTimeUnitRNS_29FormattedRelativeDateTimeDataER10UErrorCodeEJdS2_EEERNS_13UnicodeStringET_SA_S6_DpT0_(ptr noundef nonnull align 8 dereferenceable(272) %0, i64 ptrtoint (ptr @_ZNK6icu_7725RelativeDateTimeFormatter17formatNumericImplEd21URelativeDateTimeUnitRNS_29FormattedRelativeDateTimeDataER10UErrorCode to i64), i64 0, ptr noundef nonnull align 8 dereferenceable(64) %7, ptr noundef nonnull align 4 dereferenceable(4) %5, double noundef %1, i32 noundef %2)
          to label %_ZNK6icu_7725RelativeDateTimeFormatter13formatNumericEd21URelativeDateTimeUnitRNS_13UnicodeStringER10UErrorCode.exit unwind label %21

_ZNK6icu_7725RelativeDateTimeFormatter13formatNumericEd21URelativeDateTimeUnitRNS_13UnicodeStringER10UErrorCode.exit: ; preds = %23
  %25 = load i32, ptr %5, align 4, !tbaa !13
  %26 = icmp slt i32 %25, 1
  br i1 %26, label %27, label %34

27:                                               ; preds = %_ZNK6icu_7725RelativeDateTimeFormatter13formatNumericEd21URelativeDateTimeUnitRNS_13UnicodeStringER10UErrorCode.exit
  store ptr %3, ptr %8, align 8, !tbaa !112
  %28 = invoke noundef i32 @_ZNK6icu_7713UnicodeString7extractENS_9Char16PtrEiR10UErrorCode(ptr noundef nonnull align 8 dereferenceable(64) %7, ptr noundef nonnull %8, i32 noundef %4, ptr noundef nonnull align 4 dereferenceable(4) %5)
          to label %29 unwind label %31

29:                                               ; preds = %27
  %30 = load ptr, ptr %8, align 8, !tbaa !112
  call void asm sideeffect "", "rm,~{memory},~{dirflag},~{fpsr},~{flags}"(ptr %30) #20, !srcloc !114
  br label %34

31:                                               ; preds = %27
  %32 = landingpad { ptr, i32 }
          cleanup
  %33 = load ptr, ptr %8, align 8, !tbaa !112
  call void asm sideeffect "", "rm,~{memory},~{dirflag},~{fpsr},~{flags}"(ptr %33) #20, !srcloc !114
  br label %35

34:                                               ; preds = %_ZNK6icu_7725RelativeDateTimeFormatter13formatNumericEd21URelativeDateTimeUnitRNS_13UnicodeStringER10UErrorCode.exit, %29
  %.1 = phi i32 [ %28, %29 ], [ 0, %_ZNK6icu_7725RelativeDateTimeFormatter13formatNumericEd21URelativeDateTimeUnitRNS_13UnicodeStringER10UErrorCode.exit ]
  call void @_ZN6icu_7713UnicodeStringD1Ev(ptr noundef nonnull align 8 dereferenceable(64) %7) #20
  call void @llvm.lifetime.end.p0(i64 64, ptr nonnull %7) #20
  br label %36

35:                                               ; preds = %31, %21
  %.pn = phi { ptr, i32 } [ %32, %31 ], [ %22, %21 ]
  call void @_ZN6icu_7713UnicodeStringD1Ev(ptr noundef nonnull align 8 dereferenceable(64) %7) #20
  call void @llvm.lifetime.end.p0(i64 64, ptr nonnull %7) #20
  resume { ptr, i32 } %.pn

36:                                               ; preds = %6, %34, %17
  %.019 = phi i32 [ 0, %17 ], [ %.1, %34 ], [ 0, %6 ]
  ret i32 %.019
}